target datalayout = "e-m:e-p270:32:32-p271:32:32-p272:64:64-i64:64-i128:128-f80:128-n8:16:32:64-S128"
target triple = "x86_64-pc-linux-gnu"

%class.LIR_Opr = type { i64 }
%class.LIRAccess = type { ptr, i64, %class.LIRAddressOpr, %class.LIRAddressOpr, i8, %class.LIR_Opr, ptr, ptr }
%class.LIRAddressOpr = type { ptr, %class.LIR_Opr }

; Function Attrs: mustprogress nounwind uwtable
define linkonce_odr hidden i64 @_ZNK9LIRAccess13resolved_addrEv(ptr noundef nonnull align 8 dereferenceable(80) %0) #1 comdat align 2 {
  %2 = alloca %class.LIR_Opr, align 8
  %3 = alloca ptr, align 8
  store ptr %0, ptr %3, align 8
  %4 = load ptr, ptr %3, align 8
  %5 = getelementptr inbounds %class.LIRAccess, ptr %4, i32 0, i32 5
  call void @llvm.memcpy.p0.p0.i64(ptr align 8 %2, ptr align 8 %5, i64 8, i1 false)
  %6 = getelementptr inbounds %class.LIR_Opr, ptr %2, i32 0, i32 0
  %7 = load i64, ptr %6, align 8
  ret i64 %7
}

; Function Attrs: mustprogress nounwind uwtable
define linkonce_odr hidden noundef zeroext i8 @_ZNK9LIRAccess4typeEv(ptr noundef nonnull align 8 dereferenceable(80) %0) #1 comdat align 2 {
  %2 = alloca ptr, align 8
  store ptr %0, ptr %2, align 8
  %3 = load ptr, ptr %2, align 8
  %4 = getelementptr inbounds %class.LIRAccess, ptr %3, i32 0, i32 4
  %5 = load i8, ptr %4, align 8
  ret i8 %5
}

; Function Attrs: mustprogress nounwind uwtable
define linkonce_odr hidden noundef ptr @_ZNK9LIRAccess3genEv(ptr noundef nonnull align 8 dereferenceable(80) %0) #1 comdat align 2 {
  %2 = alloca ptr, align 8
  store ptr %0, ptr %2, align 8
  %3 = load ptr, ptr %2, align 8
  %4 = getelementptr inbounds %class.LIRAccess, ptr %3, i32 0, i32 0
  %5 = load ptr, ptr %4, align 8
  ret ptr %5
}

; Function Attrs: mustprogress nounwind uwtable
define hidden i64 @_ZN12BarrierSetC126atomic_cmpxchg_at_resolvedER9LIRAccessR7LIRItemS3_(ptr noundef nonnull align 8 dereferenceable(8) %0, ptr noundef nonnull align 8 dereferenceable(80) %1, ptr noundef nonnull align 8 dereferenceable(40) %2, ptr noundef nonnull align 8 dereferenceable(40) %3) unnamed_addr #1 align 2 {
  %5 = alloca %class.LIR_Opr, align 8
  %6 = alloca ptr, align 8
  %7 = alloca ptr, align 8
  %8 = alloca ptr, align 8
  %9 = alloca ptr, align 8
  %10 = alloca ptr, align 8
  %11 = alloca %class.LIR_Opr, align 8
  store ptr %0, ptr %6, align 8
  store ptr %1, ptr %7, align 8
  store ptr %2, ptr %8, align 8
  store ptr %3, ptr %9, align 8
  %12 = load ptr, ptr %7, align 8
  %13 = call noundef ptr @_ZNK9LIRAccess3genEv(ptr noundef nonnull align 8 dereferenceable(80) %12)
  store ptr %13, ptr %10, align 8
  %14 = load ptr, ptr %10, align 8
  %15 = load ptr, ptr %7, align 8
  %16 = call noundef zeroext i8 @_ZNK9LIRAccess4typeEv(ptr noundef nonnull align 8 dereferenceable(80) %15)
  %17 = load ptr, ptr %7, align 8
  %18 = call i64 @_ZNK9LIRAccess13resolved_addrEv(ptr noundef nonnull align 8 dereferenceable(80) %17)
  %19 = getelementptr inbounds %class.LIR_Opr, ptr %11, i32 0, i32 0
  store i64 %18, ptr %19, align 8
  %20 = load ptr, ptr %8, align 8
  %21 = load ptr, ptr %9, align 8
  %22 = getelementptr inbounds %class.LIR_Opr, ptr %11, i32 0, i32 0
  %23 = load i64, ptr %22, align 8
  %24 = call i64 @_ZN12LIRGenerator14atomic_cmpxchgE9BasicType7LIR_OprR7LIRItemS3_(ptr noundef nonnull align 8 dereferenceable(232) %14, i8 noundef zeroext %16, i64 %23, ptr noundef nonnull align 8 dereferenceable(40) %20, ptr noundef nonnull align 8 dereferenceable(40) %21)
  %25 = getelementptr inbounds %class.LIR_Opr, ptr %5, i32 0, i32 0
  store i64 %24, ptr %25, align 8
  %26 = getelementptr inbounds %class.LIR_Opr, ptr %5, i32 0, i32 0
  %27 = load i64, ptr %26, align 8
  ret i64 %27
}