; Function Attrs: mustprogress nounwind uwtable
define hidden i64 @_ZN12BarrierSetC126atomic_cmpxchg_at_resolvedER9LIRAccessR7LIRItemS3_(ptr nocapture nonnull readnone align 8 %0, ptr nocapture noundef nonnull readonly align 8 dereferenceable(80) %1, ptr noundef nonnull align 8 dereferenceable(40) %2, ptr noundef nonnull align 8 dereferenceable(40) %3) unnamed_addr #0 align 2 {
  %5 = load ptr, ptr %1, align 8
  %6 = getelementptr inbounds i8, ptr %1, i64 48
  %7 = load i8, ptr %6, align 8
  %8 = getelementptr inbounds i8, ptr %1, i64 56
  %.sroa.0.0.copyload.i = load i64, ptr %8, align 8
  %9 = tail call i64 @_ZN12LIRGenerator14atomic_cmpxchgE9BasicType7LIR_OprR7LIRItemS3_(ptr noundef nonnull align 8 dereferenceable(232) %5, i8 noundef zeroext %7, i64 %.sroa.0.0.copyload.i, ptr noundef nonnull align 8 dereferenceable(40) %2, ptr noundef nonnull align 8 dereferenceable(40) %3) #5
  ret i64 %9
}